target datalayout = "e-m:e-p270:32:32-p271:32:32-p272:64:64-i64:64-i128:128-f80:128-n8:16:32:64-S128"
target triple = "x86_64-pc-linux-gnu"

%struct._MRIStepInnerStepper = type { ptr, ptr, ptr, ptr, i32, i32, i32, double, double, ptr, ptr, i64, i64, i64, i64 }
%struct._MRIStepInnerStepper_Ops = type { ptr, ptr, ptr, ptr, ptr, ptr }

; Function Attrs: nounwind uwtable
define i32 @mriStepInnerStepper_FullRhs(ptr noundef %0, double noundef %1, ptr noundef %2, ptr noundef %3, i32 noundef %4) #0 {
  %6 = alloca i32, align 4
  %7 = alloca ptr, align 8
  %8 = alloca double, align 8
  %9 = alloca ptr, align 8
  %10 = alloca ptr, align 8
  %11 = alloca i32, align 4
  store ptr %0, ptr %7, align 8, !tbaa !11
  store double %1, ptr %8, align 8, !tbaa !7
  store ptr %2, ptr %9, align 8, !tbaa !9
  store ptr %3, ptr %10, align 8, !tbaa !9
  store i32 %4, ptr %11, align 4, !tbaa !15
  %12 = load ptr, ptr %7, align 8, !tbaa !11
  %13 = icmp eq ptr %12, null
  br i1 %13, label %14, label %15

14:                                               ; preds = %5
  store i32 -22, ptr %6, align 4
  br label %46

15:                                               ; preds = %5
  %16 = load ptr, ptr %7, align 8, !tbaa !11
  %17 = getelementptr inbounds nuw %struct._MRIStepInnerStepper, ptr %16, i32 0, i32 1
  %18 = load ptr, ptr %17, align 8, !tbaa !173
  %19 = icmp eq ptr %18, null
  br i1 %19, label %20, label %21

20:                                               ; preds = %15
  store i32 -22, ptr %6, align 4
  br label %46

21:                                               ; preds = %15
  %22 = load ptr, ptr %7, align 8, !tbaa !11
  %23 = getelementptr inbounds nuw %struct._MRIStepInnerStepper, ptr %22, i32 0, i32 1
  %24 = load ptr, ptr %23, align 8, !tbaa !173
  %25 = getelementptr inbounds nuw %struct._MRIStepInnerStepper_Ops, ptr %24, i32 0, i32 1
  %26 = load ptr, ptr %25, align 8, !tbaa !176
  %27 = icmp eq ptr %26, null
  br i1 %27, label %28, label %29

28:                                               ; preds = %21
  store i32 -22, ptr %6, align 4
  br label %46

29:                                               ; preds = %21
  %30 = load ptr, ptr %7, align 8, !tbaa !11
  %31 = getelementptr inbounds nuw %struct._MRIStepInnerStepper, ptr %30, i32 0, i32 1
  %32 = load ptr, ptr %31, align 8, !tbaa !173
  %33 = getelementptr inbounds nuw %struct._MRIStepInnerStepper_Ops, ptr %32, i32 0, i32 1
  %34 = load ptr, ptr %33, align 8, !tbaa !176
  %35 = load ptr, ptr %7, align 8, !tbaa !11
  %36 = load double, ptr %8, align 8, !tbaa !7
  %37 = load ptr, ptr %9, align 8, !tbaa !9
  %38 = load ptr, ptr %10, align 8, !tbaa !9
  %39 = load i32, ptr %11, align 4, !tbaa !15
  %40 = call i32 %34(ptr noundef %35, double noundef %36, ptr noundef %37, ptr noundef %38, i32 noundef %39)
  %41 = load ptr, ptr %7, align 8, !tbaa !11
  %42 = getelementptr inbounds nuw %struct._MRIStepInnerStepper, ptr %41, i32 0, i32 6
  store i32 %40, ptr %42, align 8, !tbaa !229
  %43 = load ptr, ptr %7, align 8, !tbaa !11
  %44 = getelementptr inbounds nuw %struct._MRIStepInnerStepper, ptr %43, i32 0, i32 6
  %45 = load i32, ptr %44, align 8, !tbaa !229
  store i32 %45, ptr %6, align 4
  br label %46

46:                                               ; preds = %29, %28, %20, %14
  %47 = load i32, ptr %6, align 4
  ret i32 %47
}