; Function Attrs: nounwind uwtable
define i32 @mriStepInnerStepper_FullRhs(ptr noundef %0, double noundef %1, ptr noundef %2, ptr noundef %3, i32 noundef %4) local_unnamed_addr #0 {
  %6 = icmp eq ptr %0, null
  br i1 %6, label %18, label %7

7:                                                ; preds = %5
  %8 = getelementptr inbounds nuw i8, ptr %0, i64 8
  %9 = load ptr, ptr %8, align 8, !tbaa !103
  %10 = icmp eq ptr %9, null
  br i1 %10, label %18, label %11

11:                                               ; preds = %7
  %12 = getelementptr inbounds nuw i8, ptr %9, i64 8
  %13 = load ptr, ptr %12, align 8, !tbaa !165
  %14 = icmp eq ptr %13, null
  br i1 %14, label %18, label %15

15:                                               ; preds = %11
  %16 = tail call i32 %13(ptr noundef nonnull %0, double noundef %1, ptr noundef %2, ptr noundef %3, i32 noundef %4) #14
  %17 = getelementptr inbounds nuw i8, ptr %0, i64 40
  store i32 %16, ptr %17, align 8, !tbaa !166
  br label %18

18:                                               ; preds = %11, %7, %5, %15
  %.0 = phi i32 [ %16, %15 ], [ -22, %5 ], [ -22, %7 ], [ -22, %11 ]
  ret i32 %.0
}